; Function Attrs: nounwind uwtable
define internal ptr @lxb_html_tokenizer_state_script_data_escape_start(ptr nocapture noundef %0, ptr noundef readonly %1, ptr noundef readnone %2) #1 {
  %4 = load i8, ptr %1, align 1
  %5 = icmp eq i8 %4, 45
  br i1 %5, label %6, label %8

6:                                                ; preds = %3
  store ptr @lxb_html_tokenizer_state_script_data_escape_start_dash, ptr %0, align 8
  %7 = getelementptr inbounds i8, ptr %1, i64 1
  br label %32

8:                                                ; preds = %3
  %9 = getelementptr inbounds i8, ptr %0, i64 136
  %10 = load ptr, ptr %9, align 8
  %11 = getelementptr inbounds i8, ptr %10, i64 1
  %12 = getelementptr inbounds i8, ptr %0, i64 144
  %13 = load ptr, ptr %12, align 8
  %14 = icmp ugt ptr %11, %13
  br i1 %14, label %15, label %29

15:                                               ; preds = %8
  %16 = getelementptr inbounds i8, ptr %0, i64 128
  %17 = load ptr, ptr %16, align 8
  %18 = ptrtoint ptr %17 to i64
  %19 = ptrtoint ptr %13 to i64
  %20 = add i64 %19, 4097
  %21 = sub i64 %20, %18
  %22 = tail call ptr @lexbor_realloc(ptr noundef %17, i64 noundef %21) #6
  store ptr %22, ptr %16, align 8
  %23 = icmp eq ptr %22, null
  br i1 %23, label %lxb_html_tokenizer_temp_append.exit, label %lxb_html_tokenizer_temp_realloc.exit.thread.i

lxb_html_tokenizer_temp_realloc.exit.thread.i:    ; preds = %15
  %24 = ptrtoint ptr %10 to i64
  %25 = sub i64 %24, %18
  %26 = getelementptr inbounds i8, ptr %22, i64 %25
  %27 = getelementptr inbounds i8, ptr %22, i64 %21
  store ptr %27, ptr %12, align 8
  br label %29

lxb_html_tokenizer_temp_append.exit:              ; preds = %15
  %28 = getelementptr inbounds i8, ptr %0, i64 232
  store i32 2, ptr %28, align 8
  br label %32

29:                                               ; preds = %8, %lxb_html_tokenizer_temp_realloc.exit.thread.i
  %30 = phi ptr [ %26, %lxb_html_tokenizer_temp_realloc.exit.thread.i ], [ %10, %8 ]
  store i8 33, ptr %30, align 1
  %31 = getelementptr inbounds i8, ptr %30, i64 1
  store ptr %31, ptr %9, align 8
  store ptr @lxb_html_tokenizer_state_script_data, ptr %0, align 8
  br label %32

32:                                               ; preds = %lxb_html_tokenizer_temp_append.exit, %29, %6
  %.0 = phi ptr [ %7, %6 ], [ %1, %29 ], [ %2, %lxb_html_tokenizer_temp_append.exit ]
  ret ptr %.0
}